target datalayout = "e-m:e-p270:32:32-p271:32:32-p272:64:64-i64:64-i128:128-f80:128-n8:16:32:64-S128"
target triple = "x86_64-pc-linux-gnu"

%class.ControlIntrinsicIter = type <{ i8, [7 x i8], ptr, ptr, ptr, i8, [7 x i8] }>
%"class.TriBoolArray<421, int>::TriBoolAssigner" = type { %class.TriBool.base, ptr, i64 }
%class.TriBool.base = type { i8 }
%class.DirectiveSet = type { ptr, ptr, %class.TriBoolArray, [4 x i8], %class.CHeapBitMap, %class.CHeapBitMap, [27 x i8], i8, i8, i8, i8, i8, i64, i64, i8, i8, i8, i8, i8, i8, i8, i8, i8, i64, ptr, ptr, i8, i8, i8, i8, i8, i8, i8, i64 }
%class.TriBoolArray = type { [27 x i32] }
%class.CHeapBitMap = type <{ %class.GrowableBitMap, i8, [7 x i8] }>
%class.GrowableBitMap = type { %class.BitMap }
%class.BitMap = type { ptr, i64 }

@.str.14 = private unnamed_addr constant [2 x i8] c",\00", align 1
@.str.15 = private unnamed_addr constant [41 x i8] c"failed to parse %s. must start with +/-!\00", align 1
@ControlIntrinsic = external global ptr, align 8
@DisableIntrinsic = external global ptr, align 8
@_ZN20ControlIntrinsicIterC1EPKcb = hidden unnamed_addr alias void (ptr, ptr, i1), ptr @_ZN20ControlIntrinsicIterC2EPKcb
@_ZN20ControlIntrinsicIterD1Ev = hidden unnamed_addr alias void (ptr), ptr @_ZN20ControlIntrinsicIterD2Ev

; Function Attrs: mustprogress nounwind uwtable
define linkonce_odr hidden void @_ZN7TriBoolC2Eh(ptr noundef nonnull align 4 dereferenceable(1) %0, i8 noundef zeroext %1) unnamed_addr #1 comdat align 2 {
  %3 = alloca ptr, align 8
  %4 = alloca i8, align 1
  store ptr %0, ptr %3, align 8
  store i8 %1, ptr %4, align 1
  %5 = load ptr, ptr %3, align 8
  %6 = load i8, ptr %4, align 1
  %7 = zext i8 %6 to i32
  %8 = and i32 %7, 3
  %9 = trunc i32 %8 to i8
  %10 = load i8, ptr %5, align 4
  %11 = and i8 %9, 3
  %12 = and i8 %10, -4
  %13 = or i8 %12, %11
  store i8 %13, ptr %5, align 4
  ret void
}

; Function Attrs: mustprogress nounwind uwtable
define hidden void @_ZN20ControlIntrinsicIter10next_tokenEv(ptr noundef nonnull align 8 dereferenceable(33) %0) #1 align 2 {
  %2 = alloca ptr, align 8
  %3 = alloca i8, align 1
  store ptr %0, ptr %2, align 8
  %4 = load ptr, ptr %2, align 8
  %5 = getelementptr inbounds %class.ControlIntrinsicIter, ptr %4, i32 0, i32 2
  %6 = load ptr, ptr %5, align 8
  %7 = icmp ne ptr %6, null
  br i1 %7, label %8, label %37

8:                                                ; preds = %1
  %9 = getelementptr inbounds %class.ControlIntrinsicIter, ptr %4, i32 0, i32 5
  %10 = load i8, ptr %9, align 8
  %11 = trunc i8 %10 to i1
  br i1 %11, label %37, label %12

12:                                               ; preds = %8
  %13 = getelementptr inbounds %class.ControlIntrinsicIter, ptr %4, i32 0, i32 2
  %14 = load ptr, ptr %13, align 8
  %15 = getelementptr inbounds i8, ptr %14, i64 0
  %16 = load i8, ptr %15, align 1
  store i8 %16, ptr %3, align 1
  %17 = load i8, ptr %3, align 1
  %18 = sext i8 %17 to i32
  %19 = icmp ne i32 %18, 43
  br i1 %19, label %20, label %27

20:                                               ; preds = %12
  %21 = load i8, ptr %3, align 1
  %22 = sext i8 %21 to i32
  %23 = icmp ne i32 %22, 45
  br i1 %23, label %24, label %27

24:                                               ; preds = %20
  %25 = getelementptr inbounds %class.ControlIntrinsicIter, ptr %4, i32 0, i32 2
  %26 = load ptr, ptr %25, align 8
  call void (ptr, ...) @_Z7warningPKcz(ptr noundef @.str.15, ptr noundef %26)
  br label %36

27:                                               ; preds = %20, %12
  %28 = load i8, ptr %3, align 1
  %29 = sext i8 %28 to i32
  %30 = icmp eq i32 %29, 43
  %31 = getelementptr inbounds %class.ControlIntrinsicIter, ptr %4, i32 0, i32 0
  %32 = zext i1 %30 to i8
  store i8 %32, ptr %31, align 8
  %33 = getelementptr inbounds %class.ControlIntrinsicIter, ptr %4, i32 0, i32 2
  %34 = load ptr, ptr %33, align 8
  %35 = getelementptr inbounds i8, ptr %34, i32 1
  store ptr %35, ptr %33, align 8
  br label %36

36:                                               ; preds = %27, %24
  br label %37

37:                                               ; preds = %36, %8, %1
  ret void
}

; Function Attrs: mustprogress nounwind uwtable
define linkonce_odr hidden void @_ZN12TriBoolArrayILm421EiE15TriBoolAssignerC2ERim(ptr noundef nonnull align 8 dereferenceable(24) %0, ptr noundef nonnull align 4 dereferenceable(4) %1, i64 noundef %2) unnamed_addr #1 comdat align 2 {
  %4 = alloca ptr, align 8
  %5 = alloca ptr, align 8
  %6 = alloca i64, align 8
  store ptr %0, ptr %4, align 8
  store ptr %1, ptr %5, align 8
  store i64 %2, ptr %6, align 8
  %7 = load ptr, ptr %4, align 8
  %8 = load ptr, ptr %5, align 8
  %9 = load i32, ptr %8, align 4
  %10 = load i64, ptr %6, align 8
  %11 = trunc i64 %10 to i32
  %12 = ashr i32 %9, %11
  %13 = trunc i32 %12 to i8
  call void @_ZN7TriBoolC2Eh(ptr noundef nonnull align 4 dereferenceable(1) %7, i8 noundef zeroext %13)
  %14 = getelementptr inbounds %"class.TriBoolArray<421, int>::TriBoolAssigner", ptr %7, i32 0, i32 1
  %15 = load ptr, ptr %5, align 8
  store ptr %15, ptr %14, align 8
  %16 = getelementptr inbounds %"class.TriBoolArray<421, int>::TriBoolAssigner", ptr %7, i32 0, i32 2
  %17 = load i64, ptr %6, align 8
  store i64 %17, ptr %16, align 8
  ret void
}

; Function Attrs: mustprogress nounwind uwtable
define hidden noundef nonnull align 8 dereferenceable(33) ptr @_ZN20ControlIntrinsicIterppEv(ptr noundef nonnull align 8 dereferenceable(33) %0) #1 align 2 {
  %2 = alloca ptr, align 8
  store ptr %0, ptr %2, align 8
  %3 = load ptr, ptr %2, align 8
  %4 = getelementptr inbounds %class.ControlIntrinsicIter, ptr %3, i32 0, i32 3
  %5 = call ptr @strtok_r(ptr noundef null, ptr noundef @.str.14, ptr noundef %4) #9
  %6 = getelementptr inbounds %class.ControlIntrinsicIter, ptr %3, i32 0, i32 2
  store ptr %5, ptr %6, align 8
  call void @_ZN20ControlIntrinsicIter10next_tokenEv(ptr noundef nonnull align 8 dereferenceable(33) %3)
  ret ptr %3
}

; Function Attrs: mustprogress nounwind uwtable
define linkonce_odr hidden noundef nonnull align 8 dereferenceable(24) ptr @_ZN12TriBoolArrayILm421EiE15TriBoolAssigneraSEb(ptr noundef nonnull align 8 dereferenceable(24) %0, i1 noundef zeroext %1) #1 comdat align 2 {
  %3 = alloca ptr, align 8
  %4 = alloca i8, align 1
  store ptr %0, ptr %3, align 8
  %5 = zext i1 %1 to i8
  store i8 %5, ptr %4, align 1
  %6 = load ptr, ptr %3, align 8
  %7 = load i8, ptr %6, align 8
  %8 = and i8 %7, 3
  %9 = zext i8 %8 to i32
  %10 = trunc i32 %9 to i8
  %11 = zext i8 %10 to i32
  %12 = getelementptr inbounds %"class.TriBoolArray<421, int>::TriBoolAssigner", ptr %6, i32 0, i32 2
  %13 = load i64, ptr %12, align 8
  %14 = trunc i64 %13 to i32
  %15 = shl i32 %11, %14
  %16 = getelementptr inbounds %"class.TriBoolArray<421, int>::TriBoolAssigner", ptr %6, i32 0, i32 1
  %17 = load ptr, ptr %16, align 8
  %18 = load i32, ptr %17, align 4
  %19 = xor i32 %18, %15
  store i32 %19, ptr %17, align 4
  %20 = load i8, ptr %4, align 1
  %21 = trunc i8 %20 to i1
  %22 = zext i1 %21 to i32
  %23 = trunc i32 %22 to i8
  %24 = load i8, ptr %6, align 8
  %25 = and i8 %23, 3
  %26 = and i8 %24, -4
  %27 = or i8 %26, %25
  store i8 %27, ptr %6, align 8
  %28 = load i8, ptr %6, align 8
  %29 = and i8 %28, 3
  %30 = zext i8 %29 to i32
  %31 = or i32 %30, 2
  %32 = trunc i32 %31 to i8
  %33 = load i8, ptr %6, align 8
  %34 = and i8 %32, 3
  %35 = and i8 %33, -4
  %36 = or i8 %35, %34
  store i8 %36, ptr %6, align 8
  %37 = load i8, ptr %6, align 8
  %38 = and i8 %37, 3
  %39 = zext i8 %38 to i32
  %40 = trunc i32 %39 to i8
  %41 = zext i8 %40 to i32
  %42 = getelementptr inbounds %"class.TriBoolArray<421, int>::TriBoolAssigner", ptr %6, i32 0, i32 2
  %43 = load i64, ptr %42, align 8
  %44 = trunc i64 %43 to i32
  %45 = shl i32 %41, %44
  %46 = getelementptr inbounds %"class.TriBoolArray<421, int>::TriBoolAssigner", ptr %6, i32 0, i32 1
  %47 = load ptr, ptr %46, align 8
  %48 = load i32, ptr %47, align 4
  %49 = or i32 %48, %45
  store i32 %49, ptr %47, align 4
  ret ptr %6
}

; Function Attrs: mustprogress nounwind uwtable
define linkonce_odr hidden void @_ZN12TriBoolArrayILm421EiEixEm(ptr dead_on_unwind noalias writable sret(%"class.TriBoolArray<421, int>::TriBoolAssigner") align 8 %0, ptr noundef nonnull align 4 dereferenceable(108) %1, i64 noundef %2) #1 comdat align 2 {
  %4 = alloca ptr, align 8
  %5 = alloca ptr, align 8
  %6 = alloca i64, align 8
  %7 = alloca i64, align 8
  %8 = alloca i64, align 8
  store ptr %0, ptr %4, align 8
  store ptr %1, ptr %5, align 8
  store i64 %2, ptr %6, align 8
  %9 = load ptr, ptr %5, align 8
  %10 = load i64, ptr %6, align 8
  %11 = udiv i64 %10, 16
  store i64 %11, ptr %7, align 8
  %12 = load i64, ptr %6, align 8
  %13 = urem i64 %12, 16
  store i64 %13, ptr %8, align 8
  %14 = getelementptr inbounds %class.TriBoolArray, ptr %9, i32 0, i32 0
  %15 = load i64, ptr %7, align 8
  %16 = getelementptr inbounds [27 x i32], ptr %14, i64 0, i64 %15
  %17 = load i64, ptr %8, align 8
  %18 = mul i64 2, %17
  call void @_ZN12TriBoolArrayILm421EiE15TriBoolAssignerC2ERim(ptr noundef nonnull align 8 dereferenceable(24) %0, ptr noundef nonnull align 4 dereferenceable(4) %16, i64 noundef %18)
  ret void
}

; Function Attrs: mustprogress nounwind uwtable
define linkonce_odr hidden noundef i32 @_ZN12vmIntrinsics6as_intE13vmIntrinsicID(i32 noundef %0) #1 comdat align 2 {
  %2 = alloca i32, align 4
  store i32 %0, ptr %2, align 4
  %3 = load i32, ptr %2, align 4
  ret i32 %3
}

; Function Attrs: mustprogress nounwind uwtable
define linkonce_odr hidden noundef zeroext i1 @_ZNK20ControlIntrinsicIter10is_enabledEv(ptr noundef nonnull align 8 dereferenceable(33) %0) #1 comdat align 2 {
  %2 = alloca ptr, align 8
  store ptr %0, ptr %2, align 8
  %3 = load ptr, ptr %2, align 8
  %4 = getelementptr inbounds %class.ControlIntrinsicIter, ptr %3, i32 0, i32 0
  %5 = load i8, ptr %4, align 8
  %6 = trunc i8 %5 to i1
  ret i1 %6
}

; Function Attrs: mustprogress nounwind uwtable
define linkonce_odr hidden noundef ptr @_ZNK20ControlIntrinsicIterdeEv(ptr noundef nonnull align 8 dereferenceable(33) %0) #1 comdat align 2 {
  %2 = alloca ptr, align 8
  store ptr %0, ptr %2, align 8
  %3 = load ptr, ptr %2, align 8
  %4 = getelementptr inbounds %class.ControlIntrinsicIter, ptr %3, i32 0, i32 2
  %5 = load ptr, ptr %4, align 8
  ret ptr %5
}

; Function Attrs: mustprogress nounwind uwtable
define hidden void @_ZN12DirectiveSet22init_control_intrinsicEv(ptr noundef nonnull align 8 dereferenceable(280) %0) #1 align 2 {
  %2 = alloca ptr, align 8
  %3 = alloca %class.ControlIntrinsicIter, align 8
  %4 = alloca i32, align 4
  %5 = alloca %"class.TriBoolArray<421, int>::TriBoolAssigner", align 8
  %6 = alloca %class.ControlIntrinsicIter, align 8
  %7 = alloca i32, align 4
  %8 = alloca %"class.TriBoolArray<421, int>::TriBoolAssigner", align 8
  store ptr %0, ptr %2, align 8
  %9 = load ptr, ptr %2, align 8
  %10 = load ptr, ptr @ControlIntrinsic, align 8
  call void @_ZN20ControlIntrinsicIterC1EPKcb(ptr noundef nonnull align 8 dereferenceable(33) %3, ptr noundef %10, i1 noundef zeroext false)
  br label %11

11:                                               ; preds = %28, %1
  %12 = call noundef ptr @_ZNK20ControlIntrinsicIterdeEv(ptr noundef nonnull align 8 dereferenceable(33) %3)
  %13 = icmp ne ptr %12, null
  br i1 %13, label %15, label %14

14:                                               ; preds = %11
  call void @_ZN20ControlIntrinsicIterD1Ev(ptr noundef nonnull align 8 dereferenceable(33) %3) #9
  br label %30

15:                                               ; preds = %11
  %16 = call noundef ptr @_ZNK20ControlIntrinsicIterdeEv(ptr noundef nonnull align 8 dereferenceable(33) %3)
  %17 = call noundef i32 @_ZN12vmIntrinsics7find_idEPKc(ptr noundef %16)
  store i32 %17, ptr %4, align 4
  %18 = load i32, ptr %4, align 4
  %19 = icmp ne i32 %18, 0
  br i1 %19, label %20, label %27

20:                                               ; preds = %15
  %21 = call noundef zeroext i1 @_ZNK20ControlIntrinsicIter10is_enabledEv(ptr noundef nonnull align 8 dereferenceable(33) %3)
  %22 = getelementptr inbounds %class.DirectiveSet, ptr %9, i32 0, i32 2
  %23 = load i32, ptr %4, align 4
  %24 = call noundef i32 @_ZN12vmIntrinsics6as_intE13vmIntrinsicID(i32 noundef %23)
  %25 = sext i32 %24 to i64
  call void @_ZN12TriBoolArrayILm421EiEixEm(ptr dead_on_unwind writable sret(%"class.TriBoolArray<421, int>::TriBoolAssigner") align 8 %5, ptr noundef nonnull align 4 dereferenceable(108) %22, i64 noundef %25)
  %26 = call noundef nonnull align 8 dereferenceable(24) ptr @_ZN12TriBoolArrayILm421EiE15TriBoolAssigneraSEb(ptr noundef nonnull align 8 dereferenceable(24) %5, i1 noundef zeroext %21)
  br label %27

27:                                               ; preds = %20, %15
  br label %28

28:                                               ; preds = %27
  %29 = call noundef nonnull align 8 dereferenceable(33) ptr @_ZN20ControlIntrinsicIterppEv(ptr noundef nonnull align 8 dereferenceable(33) %3)
  br label %11, !llvm.loop !6

30:                                               ; preds = %14
  %31 = load ptr, ptr @DisableIntrinsic, align 8
  call void @_ZN20ControlIntrinsicIterC1EPKcb(ptr noundef nonnull align 8 dereferenceable(33) %6, ptr noundef %31, i1 noundef zeroext true)
  br label %32

32:                                               ; preds = %48, %30
  %33 = call noundef ptr @_ZNK20ControlIntrinsicIterdeEv(ptr noundef nonnull align 8 dereferenceable(33) %6)
  %34 = icmp ne ptr %33, null
  br i1 %34, label %36, label %35

35:                                               ; preds = %32
  call void @_ZN20ControlIntrinsicIterD1Ev(ptr noundef nonnull align 8 dereferenceable(33) %6) #9
  br label %50

36:                                               ; preds = %32
  %37 = call noundef ptr @_ZNK20ControlIntrinsicIterdeEv(ptr noundef nonnull align 8 dereferenceable(33) %6)
  %38 = call noundef i32 @_ZN12vmIntrinsics7find_idEPKc(ptr noundef %37)
  store i32 %38, ptr %7, align 4
  %39 = load i32, ptr %7, align 4
  %40 = icmp ne i32 %39, 0
  br i1 %40, label %41, label %47

41:                                               ; preds = %36
  %42 = getelementptr inbounds %class.DirectiveSet, ptr %9, i32 0, i32 2
  %43 = load i32, ptr %7, align 4
  %44 = call noundef i32 @_ZN12vmIntrinsics6as_intE13vmIntrinsicID(i32 noundef %43)
  %45 = sext i32 %44 to i64
  call void @_ZN12TriBoolArrayILm421EiEixEm(ptr dead_on_unwind writable sret(%"class.TriBoolArray<421, int>::TriBoolAssigner") align 8 %8, ptr noundef nonnull align 4 dereferenceable(108) %42, i64 noundef %45)
  %46 = call noundef nonnull align 8 dereferenceable(24) ptr @_ZN12TriBoolArrayILm421EiE15TriBoolAssigneraSEb(ptr noundef nonnull align 8 dereferenceable(24) %8, i1 noundef zeroext false)
  br label %47

47:                                               ; preds = %41, %36
  br label %48

48:                                               ; preds = %47
  %49 = call noundef nonnull align 8 dereferenceable(33) ptr @_ZN20ControlIntrinsicIterppEv(ptr noundef nonnull align 8 dereferenceable(33) %6)
  br label %32, !llvm.loop !8

50:                                               ; preds = %35
  ret void
}