; Function Attrs: mustprogress nounwind uwtable
define hidden void @_ZN12DirectiveSet22init_control_intrinsicEv(ptr nocapture noundef nonnull align 8 dereferenceable(280) %0) local_unnamed_addr #0 align 2 {
  %2 = alloca %class.ControlIntrinsicIter, align 8
  %3 = alloca %class.ControlIntrinsicIter, align 8
  %4 = load ptr, ptr @ControlIntrinsic, align 8
  call void @_ZN20ControlIntrinsicIterC2EPKcb(ptr noundef nonnull align 8 dereferenceable(33) %2, ptr noundef %4, i1 noundef zeroext false)
  %5 = getelementptr inbounds i8, ptr %2, i64 8
  %6 = load ptr, ptr %5, align 8
  %.not21 = icmp eq ptr %6, null
  br i1 %.not21, label %._crit_edge, label %.lr.ph

.lr.ph:                                           ; preds = %1
  %7 = getelementptr inbounds i8, ptr %0, i64 16
  %8 = getelementptr inbounds i8, ptr %2, i64 16
  %9 = getelementptr inbounds i8, ptr %2, i64 32
  br label %18

._crit_edge:                                      ; preds = %38, %_ZN20ControlIntrinsicIterppEv.exit, %1
  %10 = getelementptr inbounds i8, ptr %2, i64 24
  %11 = load ptr, ptr %10, align 8
  call void @_Z8FreeHeapPv(ptr noundef %11) #14
  %12 = load ptr, ptr @DisableIntrinsic, align 8
  call void @_ZN20ControlIntrinsicIterC2EPKcb(ptr noundef nonnull align 8 dereferenceable(33) %3, ptr noundef %12, i1 noundef zeroext true)
  %13 = getelementptr inbounds i8, ptr %3, i64 8
  %14 = load ptr, ptr %13, align 8
  %.not523 = icmp eq ptr %14, null
  br i1 %.not523, label %._crit_edge27, label %.lr.ph26

.lr.ph26:                                         ; preds = %._crit_edge
  %15 = getelementptr inbounds i8, ptr %0, i64 16
  %16 = getelementptr inbounds i8, ptr %3, i64 16
  %17 = getelementptr inbounds i8, ptr %3, i64 32
  br label %53

18:                                               ; preds = %.lr.ph, %_ZN20ControlIntrinsicIterppEv.exit
  %19 = phi ptr [ %6, %.lr.ph ], [ %50, %_ZN20ControlIntrinsicIterppEv.exit ]
  %20 = call noundef i32 @_ZN12vmIntrinsics7find_idEPKc(ptr noundef nonnull %19) #14
  %.not7 = icmp eq i32 %20, 0
  br i1 %.not7, label %38, label %21

21:                                               ; preds = %18
  %22 = load i8, ptr %2, align 8
  %23 = sext i32 %20 to i64
  %24 = lshr i64 %23, 4
  %25 = getelementptr inbounds [27 x i32], ptr %7, i64 0, i64 %24
  %26 = shl i32 %20, 1
  %27 = and i32 %26, 30
  %28 = load i32, ptr %25, align 4
  %29 = ashr i32 %28, %27
  %30 = and i32 %29, 3
  %31 = shl nuw i32 %30, %27
  %32 = xor i32 %31, %28
  %33 = and i8 %22, 1
  %34 = or disjoint i8 %33, 2
  %35 = zext nneg i8 %34 to i32
  %36 = shl nuw i32 %35, %27
  %37 = or i32 %32, %36
  store i32 %37, ptr %25, align 4
  br label %38

38:                                               ; preds = %18, %21
  %39 = call ptr @strtok_r(ptr noundef null, ptr noundef nonnull @.str.14, ptr noundef nonnull %8) #14
  store ptr %39, ptr %5, align 8
  %.not.i.i = icmp eq ptr %39, null
  br i1 %.not.i.i, label %._crit_edge, label %40

40:                                               ; preds = %38
  %41 = load i8, ptr %9, align 8
  %42 = trunc i8 %41 to i1
  br i1 %42, label %_ZN20ControlIntrinsicIterppEv.exit, label %43

43:                                               ; preds = %40
  %44 = load i8, ptr %39, align 1
  switch i8 %44, label %45 [
    i8 45, label %46
    i8 43, label %46
  ]

45:                                               ; preds = %43
  call void (ptr, ...) @_Z7warningPKcz(ptr noundef nonnull @.str.15, ptr noundef nonnull %39) #14
  %.pre = load ptr, ptr %5, align 8
  br label %_ZN20ControlIntrinsicIterppEv.exit

46:                                               ; preds = %43, %43
  %47 = icmp eq i8 %44, 43
  %48 = zext i1 %47 to i8
  store i8 %48, ptr %2, align 8
  %49 = getelementptr inbounds i8, ptr %39, i64 1
  store ptr %49, ptr %5, align 8
  br label %_ZN20ControlIntrinsicIterppEv.exit

_ZN20ControlIntrinsicIterppEv.exit:               ; preds = %40, %45, %46
  %50 = phi ptr [ %39, %40 ], [ %.pre, %45 ], [ %49, %46 ]
  %.not = icmp eq ptr %50, null
  br i1 %.not, label %._crit_edge, label %18, !llvm.loop !6

._crit_edge27:                                    ; preds = %69, %_ZN20ControlIntrinsicIterppEv.exit9, %._crit_edge
  %51 = getelementptr inbounds i8, ptr %3, i64 24
  %52 = load ptr, ptr %51, align 8
  call void @_Z8FreeHeapPv(ptr noundef %52) #14
  ret void

53:                                               ; preds = %.lr.ph26, %_ZN20ControlIntrinsicIterppEv.exit9
  %54 = phi ptr [ %14, %.lr.ph26 ], [ %81, %_ZN20ControlIntrinsicIterppEv.exit9 ]
  %55 = call noundef i32 @_ZN12vmIntrinsics7find_idEPKc(ptr noundef nonnull %54) #14
  %.not6 = icmp eq i32 %55, 0
  br i1 %.not6, label %69, label %56

56:                                               ; preds = %53
  %57 = sext i32 %55 to i64
  %58 = lshr i64 %57, 4
  %59 = getelementptr inbounds [27 x i32], ptr %15, i64 0, i64 %58
  %60 = shl i32 %55, 1
  %61 = and i32 %60, 30
  %62 = load i32, ptr %59, align 4
  %63 = ashr i32 %62, %61
  %64 = and i32 %63, 3
  %65 = shl nuw i32 %64, %61
  %66 = xor i32 %65, %62
  %67 = shl nuw i32 2, %61
  %68 = or i32 %66, %67
  store i32 %68, ptr %59, align 4
  br label %69

69:                                               ; preds = %53, %56
  %70 = call ptr @strtok_r(ptr noundef null, ptr noundef nonnull @.str.14, ptr noundef nonnull %16) #14
  store ptr %70, ptr %13, align 8
  %.not.i.i8 = icmp eq ptr %70, null
  br i1 %.not.i.i8, label %._crit_edge27, label %71

71:                                               ; preds = %69
  %72 = load i8, ptr %17, align 8
  %73 = trunc i8 %72 to i1
  br i1 %73, label %_ZN20ControlIntrinsicIterppEv.exit9, label %74

74:                                               ; preds = %71
  %75 = load i8, ptr %70, align 1
  switch i8 %75, label %76 [
    i8 45, label %77
    i8 43, label %77
  ]

76:                                               ; preds = %74
  call void (ptr, ...) @_Z7warningPKcz(ptr noundef nonnull @.str.15, ptr noundef nonnull %70) #14
  %.pre28 = load ptr, ptr %13, align 8
  br label %_ZN20ControlIntrinsicIterppEv.exit9

77:                                               ; preds = %74, %74
  %78 = icmp eq i8 %75, 43
  %79 = zext i1 %78 to i8
  store i8 %79, ptr %3, align 8
  %80 = getelementptr inbounds i8, ptr %70, i64 1
  store ptr %80, ptr %13, align 8
  br label %_ZN20ControlIntrinsicIterppEv.exit9

_ZN20ControlIntrinsicIterppEv.exit9:              ; preds = %71, %76, %77
  %81 = phi ptr [ %70, %71 ], [ %.pre28, %76 ], [ %80, %77 ]
  %.not5 = icmp eq ptr %81, null
  br i1 %.not5, label %._crit_edge27, label %53, !llvm.loop !8
}